target datalayout = "e-m:e-p270:32:32-p271:32:32-p272:64:64-i64:64-i128:128-f80:128-n8:16:32:64-S128"
target triple = "x86_64-unknown-linux-gnu"

%"class.icu_75::UTF16CollationIterator" = type { %"class.icu_75::CollationIterator.base", ptr, ptr, ptr }
%"class.icu_75::CollationIterator.base" = type <{ %"class.icu_75::UObject", ptr, ptr, %"class.icu_75::CollationIterator::CEBuffer", i32, [4 x i8], ptr, i32, i8 }>
%"class.icu_75::UObject" = type { ptr }
%"class.icu_75::CollationIterator::CEBuffer" = type { i32, %"class.icu_75::MaybeStackArray.0" }
%"class.icu_75::MaybeStackArray.0" = type { ptr, i32, i8, [40 x i64] }
%"class.icu_75::FCDUTF16CollationIterator" = type <{ %"class.icu_75::UTF16CollationIterator", ptr, ptr, ptr, ptr, ptr, %"class.icu_75::UnicodeString", i8, [7 x i8] }>
%"class.icu_75::UnicodeString" = type { %"class.icu_75::Replaceable", %"union.icu_75::UnicodeString::StackBufferOrFields" }
%"class.icu_75::Replaceable" = type { %"class.icu_75::UObject" }
%"union.icu_75::UnicodeString::StackBufferOrFields" = type { %struct.anon.1, [32 x i8] }
%struct.anon.1 = type { i16, i32, i32, ptr }

; Function Attrs: mustprogress nounwind uwtable
define noundef i32 @_ZNK6icu_7525FCDUTF16CollationIterator9getOffsetEv(ptr noundef nonnull align 8 dereferenceable(521) %this) unnamed_addr #0 align 2 {
entry:
  %retval = alloca i32, align 4
  %this.addr = alloca ptr, align 8
  store ptr %this, ptr %this.addr, align 8
  %this1 = load ptr, ptr %this.addr, align 8
  %checkDir = getelementptr inbounds %"class.icu_75::FCDUTF16CollationIterator", ptr %this1, i32 0, i32 7
  %0 = load i8, ptr %checkDir, align 8
  %conv = sext i8 %0 to i32
  %cmp = icmp ne i32 %conv, 0
  br i1 %cmp, label %if.then, label %lor.lhs.false

lor.lhs.false:                                    ; preds = %entry
  %start = getelementptr inbounds %"class.icu_75::UTF16CollationIterator", ptr %this1, i32 0, i32 1
  %1 = load ptr, ptr %start, align 8
  %segmentStart = getelementptr inbounds %"class.icu_75::FCDUTF16CollationIterator", ptr %this1, i32 0, i32 2
  %2 = load ptr, ptr %segmentStart, align 8
  %cmp2 = icmp eq ptr %1, %2
  br i1 %cmp2, label %if.then, label %if.else

if.then:                                          ; preds = %lor.lhs.false, %entry
  %pos = getelementptr inbounds %"class.icu_75::UTF16CollationIterator", ptr %this1, i32 0, i32 2
  %3 = load ptr, ptr %pos, align 8
  %rawStart = getelementptr inbounds %"class.icu_75::FCDUTF16CollationIterator", ptr %this1, i32 0, i32 1
  %4 = load ptr, ptr %rawStart, align 8
  %sub.ptr.lhs.cast = ptrtoint ptr %3 to i64
  %sub.ptr.rhs.cast = ptrtoint ptr %4 to i64
  %sub.ptr.sub = sub i64 %sub.ptr.lhs.cast, %sub.ptr.rhs.cast
  %sub.ptr.div = sdiv exact i64 %sub.ptr.sub, 2
  %conv3 = trunc i64 %sub.ptr.div to i32
  store i32 %conv3, ptr %retval, align 4
  br label %return

if.else:                                          ; preds = %lor.lhs.false
  %pos4 = getelementptr inbounds %"class.icu_75::UTF16CollationIterator", ptr %this1, i32 0, i32 2
  %5 = load ptr, ptr %pos4, align 8
  %start5 = getelementptr inbounds %"class.icu_75::UTF16CollationIterator", ptr %this1, i32 0, i32 1
  %6 = load ptr, ptr %start5, align 8
  %cmp6 = icmp eq ptr %5, %6
  br i1 %cmp6, label %if.then7, label %if.else15

if.then7:                                         ; preds = %if.else
  %segmentStart8 = getelementptr inbounds %"class.icu_75::FCDUTF16CollationIterator", ptr %this1, i32 0, i32 2
  %7 = load ptr, ptr %segmentStart8, align 8
  %rawStart9 = getelementptr inbounds %"class.icu_75::FCDUTF16CollationIterator", ptr %this1, i32 0, i32 1
  %8 = load ptr, ptr %rawStart9, align 8
  %sub.ptr.lhs.cast10 = ptrtoint ptr %7 to i64
  %sub.ptr.rhs.cast11 = ptrtoint ptr %8 to i64
  %sub.ptr.sub12 = sub i64 %sub.ptr.lhs.cast10, %sub.ptr.rhs.cast11
  %sub.ptr.div13 = sdiv exact i64 %sub.ptr.sub12, 2
  %conv14 = trunc i64 %sub.ptr.div13 to i32
  store i32 %conv14, ptr %retval, align 4
  br label %return

if.else15:                                        ; preds = %if.else
  %segmentLimit = getelementptr inbounds %"class.icu_75::FCDUTF16CollationIterator", ptr %this1, i32 0, i32 3
  %9 = load ptr, ptr %segmentLimit, align 8
  %rawStart16 = getelementptr inbounds %"class.icu_75::FCDUTF16CollationIterator", ptr %this1, i32 0, i32 1
  %10 = load ptr, ptr %rawStart16, align 8
  %sub.ptr.lhs.cast17 = ptrtoint ptr %9 to i64
  %sub.ptr.rhs.cast18 = ptrtoint ptr %10 to i64
  %sub.ptr.sub19 = sub i64 %sub.ptr.lhs.cast17, %sub.ptr.rhs.cast18
  %sub.ptr.div20 = sdiv exact i64 %sub.ptr.sub19, 2
  %conv21 = trunc i64 %sub.ptr.div20 to i32
  store i32 %conv21, ptr %retval, align 4
  br label %return

return:                                           ; preds = %if.else15, %if.then7, %if.then
  %11 = load i32, ptr %retval, align 4
  ret i32 %11
}