; Function Attrs: mustprogress nofree norecurse nosync nounwind willreturn memory(argmem: read) uwtable
define noundef i32 @_ZNK6icu_7525FCDUTF16CollationIterator9getOffsetEv(ptr nocapture noundef nonnull readonly align 8 dereferenceable(521) %this) unnamed_addr #7 align 2 {
entry:
  %checkDir = getelementptr inbounds i8, ptr %this, i64 520
  %0 = load i8, ptr %checkDir, align 8
  %cmp.not = icmp eq i8 %0, 0
  br i1 %cmp.not, label %lor.lhs.false, label %if.then

lor.lhs.false:                                    ; preds = %entry
  %start = getelementptr inbounds i8, ptr %this, i64 392
  %1 = load ptr, ptr %start, align 8
  %segmentStart = getelementptr inbounds i8, ptr %this, i64 424
  %2 = load ptr, ptr %segmentStart, align 8
  %cmp2 = icmp eq ptr %1, %2
  br i1 %cmp2, label %if.then, label %if.else

if.then:                                          ; preds = %lor.lhs.false, %entry
  %pos = getelementptr inbounds i8, ptr %this, i64 400
  %3 = load ptr, ptr %pos, align 8
  br label %return

if.else:                                          ; preds = %lor.lhs.false
  %pos4 = getelementptr inbounds i8, ptr %this, i64 400
  %4 = load ptr, ptr %pos4, align 8
  %cmp6 = icmp eq ptr %4, %1
  br i1 %cmp6, label %return, label %if.else15

if.else15:                                        ; preds = %if.else
  %segmentLimit = getelementptr inbounds i8, ptr %this, i64 432
  %5 = load ptr, ptr %segmentLimit, align 8
  br label %return

return:                                           ; preds = %if.else, %if.else15, %if.then
  %.sink2 = phi ptr [ %5, %if.else15 ], [ %3, %if.then ], [ %2, %if.else ]
  %rawStart16 = getelementptr inbounds i8, ptr %this, i64 416
  %6 = load ptr, ptr %rawStart16, align 8
  %sub.ptr.lhs.cast17 = ptrtoint ptr %.sink2 to i64
  %sub.ptr.rhs.cast18 = ptrtoint ptr %6 to i64
  %sub.ptr.sub19 = sub i64 %sub.ptr.lhs.cast17, %sub.ptr.rhs.cast18
  %retval.0.in = lshr exact i64 %sub.ptr.sub19, 1
  %retval.0 = trunc i64 %retval.0.in to i32
  ret i32 %retval.0
}